target datalayout = "e-m:e-p270:32:32-p271:32:32-p272:64:64-i64:64-i128:128-f80:128-n8:16:32:64-S128"
target triple = "x86_64-pc-linux-gnu"

%struct.mbedtls_ssl_ciphersuite_t = type { i32, ptr, i8, i8, i8, i8, i16, i16 }

@.str.96 = private unnamed_addr constant [9 x i8] c"+\06\01\05\05\07\03\01\00", align 1
@.str.97 = private unnamed_addr constant [9 x i8] c"+\06\01\05\05\07\03\02\00", align 1

; Function Attrs: nounwind uwtable
define hidden i32 @mbedtls_ssl_check_cert_usage(ptr noundef %0, ptr noundef %1, i32 noundef %2, i32 noundef %3, ptr noundef %4) #0 {
  %6 = alloca ptr, align 8
  %7 = alloca ptr, align 8
  %8 = alloca i32, align 4
  %9 = alloca i32, align 4
  %10 = alloca ptr, align 8
  %11 = alloca i32, align 4
  %12 = alloca i32, align 4
  %13 = alloca ptr, align 8
  %14 = alloca i64, align 8
  store ptr %0, ptr %6, align 8, !tbaa !183
  store ptr %1, ptr %7, align 8, !tbaa !74
  store i32 %2, ptr %8, align 4, !tbaa !10
  store i32 %3, ptr %9, align 4, !tbaa !10
  store ptr %4, ptr %10, align 8, !tbaa !38
  call void @llvm.lifetime.start.p0(i64 4, ptr %11) #11
  store i32 0, ptr %11, align 4, !tbaa !10
  call void @llvm.lifetime.start.p0(i64 4, ptr %12) #11
  store i32 0, ptr %12, align 4, !tbaa !10
  call void @llvm.lifetime.start.p0(i64 8, ptr %13) #11
  call void @llvm.lifetime.start.p0(i64 8, ptr %14) #11
  %15 = load i32, ptr %9, align 4, !tbaa !10
  %16 = icmp eq i32 %15, 771
  br i1 %16, label %17, label %30

17:                                               ; preds = %5
  %18 = load i32, ptr %8, align 4, !tbaa !10
  %19 = icmp eq i32 %18, 0
  br i1 %19, label %20, label %30

20:                                               ; preds = %17
  %21 = load ptr, ptr %7, align 8, !tbaa !74
  %22 = getelementptr inbounds nuw %struct.mbedtls_ssl_ciphersuite_t, ptr %21, i32 0, i32 4
  %23 = load i8, ptr %22, align 2, !tbaa !305
  %24 = zext i8 %23 to i32
  switch i32 %24, label %29 [
    i32 1, label %25
    i32 7, label %25
    i32 2, label %26
    i32 3, label %26
    i32 4, label %26
    i32 9, label %27
    i32 10, label %27
    i32 0, label %28
    i32 5, label %28
    i32 6, label %28
    i32 8, label %28
    i32 11, label %28
  ]

25:                                               ; preds = %20, %20
  store i32 32, ptr %12, align 4, !tbaa !10
  br label %29

26:                                               ; preds = %20, %20, %20
  store i32 128, ptr %12, align 4, !tbaa !10
  br label %29

27:                                               ; preds = %20, %20
  store i32 8, ptr %12, align 4, !tbaa !10
  br label %29

28:                                               ; preds = %20, %20, %20, %20, %20
  store i32 0, ptr %12, align 4, !tbaa !10
  br label %29

29:                                               ; preds = %28, %20, %27, %26, %25
  br label %31

30:                                               ; preds = %17, %5
  store i32 128, ptr %12, align 4, !tbaa !10
  br label %31

31:                                               ; preds = %30, %29
  %32 = load ptr, ptr %6, align 8, !tbaa !183
  %33 = load i32, ptr %12, align 4, !tbaa !10
  %34 = call i32 @mbedtls_x509_crt_check_key_usage(ptr noundef %32, i32 noundef %33)
  %35 = icmp ne i32 %34, 0
  br i1 %35, label %36, label %40

36:                                               ; preds = %31
  %37 = load ptr, ptr %10, align 8, !tbaa !38
  %38 = load i32, ptr %37, align 4, !tbaa !10
  %39 = or i32 %38, 2048
  store i32 %39, ptr %37, align 4, !tbaa !10
  store i32 -1, ptr %11, align 4, !tbaa !10
  br label %40

40:                                               ; preds = %36, %31
  %41 = load i32, ptr %8, align 4, !tbaa !10
  %42 = icmp eq i32 %41, 0
  br i1 %42, label %43, label %44

43:                                               ; preds = %40
  store ptr @.str.96, ptr %13, align 8, !tbaa !29
  store i64 8, ptr %14, align 8, !tbaa !8
  br label %45

44:                                               ; preds = %40
  store ptr @.str.97, ptr %13, align 8, !tbaa !29
  store i64 8, ptr %14, align 8, !tbaa !8
  br label %45

45:                                               ; preds = %44, %43
  %46 = load ptr, ptr %6, align 8, !tbaa !183
  %47 = load ptr, ptr %13, align 8, !tbaa !29
  %48 = load i64, ptr %14, align 8, !tbaa !8
  %49 = call i32 @mbedtls_x509_crt_check_extended_key_usage(ptr noundef %46, ptr noundef %47, i64 noundef %48)
  %50 = icmp ne i32 %49, 0
  br i1 %50, label %51, label %55

51:                                               ; preds = %45
  %52 = load ptr, ptr %10, align 8, !tbaa !38
  %53 = load i32, ptr %52, align 4, !tbaa !10
  %54 = or i32 %53, 4096
  store i32 %54, ptr %52, align 4, !tbaa !10
  store i32 -1, ptr %11, align 4, !tbaa !10
  br label %55

55:                                               ; preds = %51, %45
  %56 = load i32, ptr %11, align 4, !tbaa !10
  call void @llvm.lifetime.end.p0(i64 8, ptr %14) #11
  call void @llvm.lifetime.end.p0(i64 8, ptr %13) #11
  call void @llvm.lifetime.end.p0(i64 4, ptr %12) #11
  call void @llvm.lifetime.end.p0(i64 4, ptr %11) #11
  ret i32 %56
}