; Function Attrs: nounwind uwtable
define hidden range(i32 -1, 1) i32 @mbedtls_ssl_check_cert_usage(ptr noundef %0, ptr noundef readonly captures(none) %1, i32 noundef %2, i32 noundef %3, ptr noundef captures(none) %4) local_unnamed_addr #1 {
  %6 = icmp eq i32 %3, 771
  %7 = icmp eq i32 %2, 0
  %or.cond = and i1 %7, %6
  br i1 %or.cond, label %8, label %13

8:                                                ; preds = %5
  %9 = getelementptr inbounds nuw i8, ptr %1, i64 18
  %10 = load i8, ptr %9, align 2, !tbaa !272
  %switch.tableidx = add i8 %10, -1
  %11 = icmp ult i8 %switch.tableidx, 10
  br i1 %11, label %switch.lookup, label %13

switch.lookup:                                    ; preds = %8
  %12 = zext nneg i8 %switch.tableidx to i64
  %switch.gep = getelementptr inbounds nuw [10 x i32], ptr @switch.table.mbedtls_ssl_check_cert_usage, i64 0, i64 %12
  %switch.load = load i32, ptr %switch.gep, align 4
  br label %13

13:                                               ; preds = %switch.lookup, %8, %5
  %.013 = phi i32 [ 0, %8 ], [ 128, %5 ], [ %switch.load, %switch.lookup ]
  %14 = tail call i32 @mbedtls_x509_crt_check_key_usage(ptr noundef %0, i32 noundef %.013) #26
  %.not = icmp eq i32 %14, 0
  br i1 %.not, label %18, label %15

15:                                               ; preds = %13
  %16 = load i32, ptr %4, align 4, !tbaa !32
  %17 = or i32 %16, 2048
  store i32 %17, ptr %4, align 4, !tbaa !32
  br label %18

18:                                               ; preds = %15, %13
  %.014 = phi i32 [ -1, %15 ], [ 0, %13 ]
  %.str.96..str.97 = select i1 %7, ptr @.str.96, ptr @.str.97
  %19 = tail call i32 @mbedtls_x509_crt_check_extended_key_usage(ptr noundef %0, ptr noundef nonnull %.str.96..str.97, i64 noundef 8) #26
  %.not15 = icmp eq i32 %19, 0
  br i1 %.not15, label %23, label %20

20:                                               ; preds = %18
  %21 = load i32, ptr %4, align 4, !tbaa !32
  %22 = or i32 %21, 4096
  store i32 %22, ptr %4, align 4, !tbaa !32
  br label %23

23:                                               ; preds = %20, %18
  %.1 = phi i32 [ -1, %20 ], [ %.014, %18 ]
  ret i32 %.1
}